((lp0
(lp1
a(lp2
I0
aa(lp3
I0
aa(lp4
I1
aa(lp5
I1
aI2
aI3
aa(lp6
I0
aI1
aa(lp7
I0
aI1
aI3
aI4
aI5
aa(lp8
I0
aI1
aI2
aI5
aI6
aa(lp9
I0
aI1
aI2
aI5
aI7
aa(lp10
I0
aI1
aI3
aI4
aI5
aI6
aI7
aa(lp11
I1
aI2
aI4
aI5
aI9
aa(lp12
I0
aI1
aI2
aI5
aI6
aI7
aI8
aI9
aa(lp13
I2
aI10
aI4
aI5
aa(lp14
I0
aI1
aI3
aI4
aI5
aI6
aI7
aI8
aI9
aI11
aa(lp15
I0
aI2
aI4
aI7
aI8
aI10
aI11
aI12
aI13
aa(lp16
I0
aI1
aI3
aI4
aI5
aI6
aI7
aI8
aI9
aI11
aI13
aa(lp17
I0
aI1
aI5
aI6
aI7
aI8
aI9
aI10
aI11
aI12
aI13
aI15
aa(lp18
I3
aa(lp19
I4
aI8
aI10
aI12
aI14
aI16
aa(lp20
I0
aI1
aI3
aI4
aI5
aI6
aI7
aI8
aI9
aI11
aI12
aI13
aI15
aI16
aa(lp21
I0
aI1
aI2
aI5
aI6
aI7
aI8
aI9
aI10
aI11
aI12
aI13
aI14
aI15
aI16
aI19
aa(lp22
I0
aI2
aI4
aI5
aI6
aI7
aI8
aI10
aI11
aI12
aI13
aI14
aI15
aI16
aI18
aI19
aI20
aa(lp23
I0
aI1
aI4
aI5
aI6
aI7
aI9
aI10
aI11
aI13
aI15
aI16
aI18
aI19
aI20
aa(lp24
I0
aI1
aI5
aI6
aI7
aI9
aI10
aI11
aI12
aI13
aI15
aI16
aI18
aI19
aI20
aI22
aa(lp25
I0
aI17
aI3
aa(lp26
I0
aI1
aI4
aI5
aI6
aI7
aI8
aI9
aI10
aI11
aI13
aI14
aI15
aI16
aI18
aI19
aI20
aI22
aI23
aa(lp27
I0
aI1
aI2
aI3
aI4
aI5
aI6
aI7
aI8
aI9
aI10
aI11
aI12
aI13
aI14
aI15
aI16
aI17
aI18
aI19
aI20
aI21
aI22
aI23
aI24
aI25
aa(lp28
(I0
F37.95
I4
F3.35
(lp29
S'region.hdr'
p30
aS'2mass-atlas-ID00000s-jID00000.fits'
p31
aS'p2mass-atlas-ID00000s-jID00000.fits'
p32
aS'p2mass-atlas-ID00000s-jID00000_area.fits'
p33
atp34
a(I1
F8.36
I0
F2.77
(lp35
S'region.hdr'
p36
aS'2mass-atlas-ID00001s-jID00001.fits'
p37
aS'p2mass-atlas-ID00001s-jID00001.fits'
p38
aS'p2mass-atlas-ID00001s-jID00001_area.fits'
p39
atp40
a(I2
F14.63
I0
F2.67
(lp41
S'region.hdr'
p42
aS'2mass-atlas-ID00002s-jID00002.fits'
p43
aS'p2mass-atlas-ID00002s-jID00002.fits'
p44
aS'p2mass-atlas-ID00002s-jID00002_area.fits'
p45
atp46
a(I3
F17.3
I1
F4.53
(lp47
S'region.hdr'
p48
aS'2mass-atlas-ID00003s-jID00003.fits'
p49
aS'p2mass-atlas-ID00003s-jID00003.fits'
p50
aS'p2mass-atlas-ID00003s-jID00003_area.fits'
p51
atp52
a(I4
F34.5
I4
F3.44
(lp53
S'region.hdr'
p54
aS'2mass-atlas-ID00004s-jID00004.fits'
p55
aS'p2mass-atlas-ID00004s-jID00004.fits'
p56
aS'p2mass-atlas-ID00004s-jID00004_area.fits'
p57
atp58
a(I5
F28.78
I0
F2.12
(lp59
S'region.hdr'
p60
aS'p2mass-atlas-ID00000s-jID00000.fits'
p61
aS'p2mass-atlas-ID00000s-jID00000_area.fits'
p62
aS'p2mass-atlas-ID00001s-jID00001.fits'
p63
aS'p2mass-atlas-ID00001s-jID00001_area.fits'
p64
aS'fit.txt'
p65
aS'diff.txt'
p66
atp67
a(I6
F26.13
I4
F2.65
(lp68
S'region.hdr'
p69
aS'p2mass-atlas-ID00001s-jID00001.fits'
p70
aS'p2mass-atlas-ID00001s-jID00001_area.fits'
p71
aS'p2mass-atlas-ID00000s-jID00000.fits'
p72
aS'p2mass-atlas-ID00000s-jID00000_area.fits'
p73
aS'fit.txt'
p74
aS'diff.txt'
p75
atp76
a(I7
F21.83
I0
F2.18
(lp77
S'region.hdr'
p78
aS'p2mass-atlas-ID00001s-jID00001.fits'
p79
aS'p2mass-atlas-ID00001s-jID00001_area.fits'
p80
aS'p2mass-atlas-ID00003s-jID00003.fits'
p81
aS'p2mass-atlas-ID00003s-jID00003_area.fits'
p82
aS'fit.txt'
p83
aS'diff.txt'
p84
atp85
a(I8
F30.9
I1
F3.6
(lp86
S'region.hdr'
p87
aS'p2mass-atlas-ID00002s-jID00002.fits'
p88
aS'p2mass-atlas-ID00002s-jID00002_area.fits'
p89
aS'p2mass-atlas-ID00000s-jID00000.fits'
p90
aS'p2mass-atlas-ID00000s-jID00000_area.fits'
p91
aS'fit.txt'
p92
aS'diff.txt'
p93
atp94
a(I9
F3.11
I2
F5.25
(lp95
S'region.hdr'
p96
aS'p2mass-atlas-ID00002s-jID00002.fits'
p97
aS'p2mass-atlas-ID00002s-jID00002_area.fits'
p98
aS'p2mass-atlas-ID00001s-jID00001.fits'
p99
aS'p2mass-atlas-ID00001s-jID00001_area.fits'
p100
aS'fit.txt'
p101
aS'diff.txt'
p102
atp103
a(I10
F1.01
I0
F2.1
(lp104
S'region.hdr'
p105
aS'p2mass-atlas-ID00002s-jID00002.fits'
p106
aS'p2mass-atlas-ID00002s-jID00002_area.fits'
p107
aS'fit.txt'
p108
aS'diff.txt'
p109
atp110
a(I11
F11.12
I1
F3.5
(lp111
S'region.hdr'
p112
aS'p2mass-atlas-ID00003s-jID00003.fits'
p113
aS'p2mass-atlas-ID00003s-jID00003_area.fits'
p114
aS'p2mass-atlas-ID00001s-jID00001.fits'
p115
aS'p2mass-atlas-ID00001s-jID00001_area.fits'
p116
aS'fit.txt'
p117
aS'diff.txt'
p118
atp119
a(I12
F24.01
I0
F2.12
(lp120
S'region.hdr'
p121
aS'p2mass-atlas-ID00004s-jID00004.fits'
p122
aS'p2mass-atlas-ID00004s-jID00004_area.fits'
p123
aS'p2mass-atlas-ID00001s-jID00001.fits'
p124
aS'p2mass-atlas-ID00001s-jID00001_area.fits'
p125
aS'fit.txt'
p126
aS'diff.txt'
p127
atp128
a(I13
F41.29
I4
F2.59
(lp129
S'region.hdr'
p130
aS'p2mass-atlas-ID00004s-jID00004.fits'
p131
aS'p2mass-atlas-ID00004s-jID00004_area.fits'
p132
aS'p2mass-atlas-ID00003s-jID00003.fits'
p133
aS'p2mass-atlas-ID00003s-jID00003_area.fits'
p134
aS'fit.txt'
p135
aS'diff.txt'
p136
atp137
a(I14
F14.63
I1
F0.24
(lp138
S'fits_list.tbl'
p139
aS'fit.txt'
p140
aS'diff.txt'
p141
aS'fits.tbl'
p142
atp143
a(I15
F28.84
I4
F0.35
(lp144
S'pimages.tbl'
p145
aS'fits.tbl'
p146
aS'corrections.tbl'
p147
atp148
a(I16
F20.01
I2
F5.2
(lp149
S'corrections.tbl'
p150
aS'p2mass-atlas-ID00000s-jID00000.fits'
p151
aS'p2mass-atlas-ID00000s-jID00000_area.fits'
p152
aS'c2mass-atlas-ID00000s-jID00000_area.fits'
p153
aS'c2mass-atlas-ID00000s-jID00000.fits'
p154
atp155
a(I17
F34.5
I1
F3.55
(lp156
S'corrections.tbl'
p157
aS'p2mass-atlas-ID00001s-jID00001.fits'
p158
aS'p2mass-atlas-ID00001s-jID00001_area.fits'
p159
aS'c2mass-atlas-ID00001s-jID00001_area.fits'
p160
aS'c2mass-atlas-ID00001s-jID00001.fits'
p161
atp162
a(I18
F17.3
I4
F2.71
(lp163
S'corrections.tbl'
p164
aS'p2mass-atlas-ID00002s-jID00002.fits'
p165
aS'p2mass-atlas-ID00002s-jID00002_area.fits'
p166
aS'c2mass-atlas-ID00002s-jID00002_area.fits'
p167
aS'c2mass-atlas-ID00002s-jID00002.fits'
p168
atp169
a(I19
F25.2
I1
F3.64
(lp170
S'corrections.tbl'
p171
aS'p2mass-atlas-ID00003s-jID00003.fits'
p172
aS'p2mass-atlas-ID00003s-jID00003_area.fits'
p173
aS'c2mass-atlas-ID00003s-jID00003.fits'
p174
aS'c2mass-atlas-ID00003s-jID00003_area.fits'
p175
atp176
a(I20
F3.2
I0
F2.15
(lp177
S'corrections.tbl'
p178
aS'p2mass-atlas-ID00004s-jID00004.fits'
p179
aS'p2mass-atlas-ID00004s-jID00004_area.fits'
p180
aS'c2mass-atlas-ID00004s-jID00004.fits'
p181
aS'c2mass-atlas-ID00004s-jID00004_area.fits'
p182
atp183
a(I21
F1.01
I1
F0.46
(lp184
S'cimages.tbl'
p185
aS'c2mass-atlas-ID00000s-jID00000_area.fits'
p186
aS'c2mass-atlas-ID00000s-jID00000.fits'
p187
aS'c2mass-atlas-ID00001s-jID00001_area.fits'
p188
aS'c2mass-atlas-ID00001s-jID00001.fits'
p189
aS'c2mass-atlas-ID00002s-jID00002_area.fits'
p190
aS'c2mass-atlas-ID00002s-jID00002.fits'
p191
aS'c2mass-atlas-ID00003s-jID00003.fits'
p192
aS'c2mass-atlas-ID00003s-jID00003_area.fits'
p193
aS'c2mass-atlas-ID00004s-jID00004.fits'
p194
aS'c2mass-atlas-ID00004s-jID00004_area.fits'
p195
aS'newcimages.tbl'
p196
atp197
a(I22
F0.0
I1
F1.01
(lp198
S'region.hdr'
p199
aS'newcimages.tbl'
p200
aS'mosaic_ID00022_ID00022.fits'
p201
aS'mosaic_ID00022_ID00022_area.fits'
p202
atp203
a(I23
F3.65
I3
F3.86
(lp204
S'mosaic_ID00022_ID00022.fits'
p205
aS'mosaic_ID00022_ID00022_area.fits'
p206
aS'shrunken_ID00023_ID00023.fits'
p207
atp208
a(I24
F3.2
I3
F0.45
(lp209
S'shrunken_ID00023_ID00023.fits'
p210
aS'shrunken_ID00023_ID00023.jpg'
p211
atp212
a(iinstance
Instance
p213
(dp214
S'machineCapability'
p215
(lp216
F5.0
aF3.0
aF2.0
aF1.0
aF4.0
asS'dur'
p217
(lp218
(lp219
F2.678
aF2.766
aF2.6719999999999997
aF2.7199999999999998
aF2.756
aF2.118
aF2.118
aF2.176
aF2.162
aF2.098
aF2.102
aF2.102
aF2.1239999999999997
aF2.074
aF0.144
aF0.284
aF2.0780000000000003
aF2.128
aF2.166
aF2.186
aF2.152
aF0.27799999999999997
aF0.606
aF0.772
aF0.09
aa(lp220
F4.463333333333334
aF4.61
aF4.453333333333333
aF4.533333333333333
aF4.593333333333333
aF3.53
aF3.53
aF3.626666666666667
aF3.6033333333333335
aF3.4966666666666666
aF3.5033333333333334
aF3.5033333333333334
aF3.5399999999999996
aF3.4566666666666666
aF0.24
aF0.47333333333333333
aF3.4633333333333334
aF3.546666666666667
aF3.61
aF3.643333333333333
aF3.5866666666666664
aF0.4633333333333333
aF1.01
aF1.2866666666666666
aF0.15
aa(lp221
F6.695
aF6.915
aF6.68
aF6.8
aF6.89
aF5.295
aF5.295
aF5.44
aF5.405
aF5.245
aF5.255
aF5.255
aF5.31
aF5.185
aF0.36
aF0.71
aF5.195
aF5.32
aF5.415
aF5.465
aF5.38
aF0.695
aF1.515
aF1.93
aF0.225
aa(lp222
F13.39
aF13.83
aF13.36
aF13.6
aF13.78
aF10.59
aF10.59
aF10.88
aF10.81
aF10.49
aF10.51
aF10.51
aF10.62
aF10.37
aF0.72
aF1.42
aF10.39
aF10.64
aF10.83
aF10.93
aF10.76
aF1.39
aF3.03
aF3.86
aF0.45
aa(lp223
F3.3475
aF3.4575
aF3.34
aF3.4
aF3.445
aF2.6475
aF2.6475
aF2.72
aF2.7025
aF2.6225
aF2.6275
aF2.6275
aF2.655
aF2.5925
aF0.18
aF0.355
aF2.5975
aF2.66
aF2.7075
aF2.7325
aF2.69
aF0.3475
aF0.7575
aF0.965
aF0.1125
aasS'jobs'
p224
(lp225
(F13.39
(lp226
g30
ag31
ag32
ag33
atp227
a(F13.83
(lp228
g36
ag37
ag38
ag39
atp229
a(F13.36
(lp230
g42
ag43
ag44
ag45
atp231
a(F13.6
(lp232
g48
ag49
ag50
ag51
atp233
a(F13.78
(lp234
g54
ag55
ag56
ag57
atp235
a(F10.59
(lp236
g60
ag61
ag62
ag63
ag64
ag65
ag66
atp237
a(F10.59
(lp238
g69
ag70
ag71
ag72
ag73
ag74
ag75
atp239
a(F10.88
(lp240
g78
ag79
ag80
ag81
ag82
ag83
ag84
atp241
a(F10.81
(lp242
g87
ag88
ag89
ag90
ag91
ag92
ag93
atp243
a(F10.49
(lp244
g96
ag97
ag98
ag99
ag100
ag101
ag102
atp245
a(F10.51
(lp246
g105
ag106
ag107
ag108
ag109
atp247
a(F10.51
(lp248
g112
ag113
ag114
ag115
ag116
ag117
ag118
atp249
a(F10.62
(lp250
g121
ag122
ag123
ag124
ag125
ag126
ag127
atp251
a(F10.37
(lp252
g130
ag131
ag132
ag133
ag134
ag135
ag136
atp253
a(F0.72
(lp254
g139
ag140
ag141
ag142
atp255
a(F1.42
(lp256
g145
ag146
ag147
atp257
a(F10.39
(lp258
g150
ag151
ag152
ag153
ag154
atp259
a(F10.64
(lp260
g157
ag158
ag159
ag160
ag161
atp261
a(F10.83
(lp262
g164
ag165
ag166
ag167
ag168
atp263
a(F10.93
(lp264
g171
ag172
ag173
ag174
ag175
atp265
a(F10.76
(lp266
g178
ag179
ag180
ag181
ag182
atp267
a(F1.39
(lp268
g185
ag186
ag187
ag188
ag189
ag190
ag191
ag192
ag193
ag194
ag195
ag196
atp269
a(F3.03
(lp270
g199
ag200
ag201
ag202
atp271
a(F3.86
(lp272
g205
ag206
ag207
atp273
a(F0.45
(lp274
g210
ag211
atp275
asS'm'
p276
I5
sS'n'
p277
I25
sbF43.88549999999999
(lp278
(I22
I1
tp279
a(I10
I0
tp280
a(I21
I1
tp281
a(I24
I0
tp282
a(I20
I0
tp283
a(I9
I2
tp284
a(I1
I0
tp285
a(I11
I1
tp286
a(I14
I1
tp287
a(I2
I0
tp288
a(I18
I4
tp289
a(I3
I1
tp290
a(I16
I2
tp291
a(I7
I0
tp292
a(I19
I1
tp293
a(I12
I0
tp294
a(I6
I4
tp295
a(I24
I3
tp296
a(I15
I4
tp297
a(I5
I0
tp298
a(I8
I1
tp299
a(I17
I1
tp300
a(I4
I4
tp301
a(I0
I4
tp302
a(I23
I3
tp303
a(I13
I4
tp304
atp305
.