((lp0
(lp1
a(lp2
I0
aa(lp3
a(lp4
a(lp5
a(lp6
I2
aa(lp7
I2
aI5
aa(lp8
I0
aI1
aa(lp9
I0
aI1
aI7
aa(lp10
I4
aa(lp11
I7
aa(lp12
I3
aa(lp13
I2
aI5
aI6
aa(lp14
I0
aI1
aI8
aI7
aa(lp15
I3
aI10
aI11
aa(lp16
I0
aI1
aI2
aI3
aI4
aI5
aI6
aI7
aI8
aI9
aI10
aI11
aI12
aI13
aI14
aa(lp17
(I0
S'40.00'
p18
I0
tp19
a(I1
S'20.50'
p20
I1
tp21
a(I2
S'22.50'
p22
I4
tp23
a(I3
S'37.00'
p24
I0
tp25
a(I4
S'39.00'
p26
I3
tp27
a(I5
S'14.50'
p28
I1
tp29
a(I6
S'0.00'
p30
I1
tp31
a(I7
S'12.00'
p32
I2
tp33
a(I8
S'0.00'
p34
I2
tp35
a(I9
S'26.67'
p36
I2
tp37
a(I10
S'41.00'
p38
I1
tp39
a(I11
S'0.00'
p40
I4
tp41
a(I12
S'39.00'
p42
I2
tp43
a(I13
S'0.00'
p44
I0
tp45
a(I14
S'46.00'
p46
I2
tp47
aF48.333333333333336
tp48
.