((lp0
I0
aI0
aI0
aF4.0
aI0
aF4.0
aF1.5
aF5.5
aF12.0
aF14.5
aF24.0
aF16.0
aF28.333333333333336
aF29.0
aF29.333333333333336
aF5.0
aF47.0
a(lp1
(lp2
a(lp3
a(lp4
a(lp5
I0
aa(lp6
a(lp7
I0
aa(lp8
I2
aa(lp9
I2
aI6
aa(lp10
I1
aa(lp11
I0
aI5
aa(lp12
I2
aI6
aI7
aa(lp13
I8
aI1
aI3
aa(lp14
I8
aI1
aI11
aa(lp15
I0
aI9
aI5
aa(lp16
I8
aI1
aI11
aI12
aa(lp17
I3
aa(lp18
I0
aI1
aI2
aI3
aI4
aI5
aI6
aI7
aI8
aI9
aI10
aI11
aI12
aI13
aI14
aI15
aa(iinstance
Instance
p19
(dp20
S'machineCapability'
p21
(lp22
F1.0
aF2.0
aF3.0
aF1.0
aF2.0
asS'dur'
p23
(lp24
(lp25
F8.0
aF41.0
aF36.0
aF3.0
aF1.0
aF12.0
aF29.0
aF44.0
aF36.0
aF37.0
aF8.0
aF45.0
aF21.0
aF37.0
aF7.0
aa(lp26
F4.0
aF20.5
aF18.0
aF1.5
aF0.5
aF6.0
aF14.5
aF22.0
aF18.0
aF18.5
aF4.0
aF22.5
aF10.5
aF18.5
aF3.5
aa(lp27
F2.6666666666666665
aF13.666666666666666
aF12.0
aF1.0
aF0.3333333333333333
aF4.0
aF9.666666666666666
aF14.666666666666666
aF12.0
aF12.333333333333334
aF2.6666666666666665
aF15.0
aF7.0
aF12.333333333333334
aF2.3333333333333335
aa(lp28
F8.0
aF41.0
aF36.0
aF3.0
aF1.0
aF12.0
aF29.0
aF44.0
aF36.0
aF37.0
aF8.0
aF45.0
aF21.0
aF37.0
aF7.0
aa(lp29
F4.0
aF20.5
aF18.0
aF1.5
aF0.5
aF6.0
aF14.5
aF22.0
aF18.0
aF18.5
aF4.0
aF22.5
aF10.5
aF18.5
aF3.5
aasS'jobs'
p30
(lp31
(F8.0
(lp32
S'file1'
p33
atp34
a(F41.0
(lp35
tp36
a(F36.0
(lp37
tp38
a(F3.0
(lp39
tp40
a(F1.0
(lp41
S'file1'
p42
atp43
a(F12.0
(lp44
tp45
a(F29.0
(lp46
tp47
a(F44.0
(lp48
tp49
a(F36.0
(lp50
tp51
a(F37.0
(lp52
S'file2'
p53
aS'file1'
p54
atp55
a(F8.0
(lp56
tp57
a(F45.0
(lp58
tp59
a(F21.0
(lp60
tp61
a(F37.0
(lp62
tp63
a(F7.0
(lp64
tp65
asS'm'
p66
I5
sS'n'
p67
I15
sb(lp68
(I0
I1
tp69
a(I8
I2
tp70
a(I3
I4
tp71
a(I4
I0
tp72
a(I1
I3
tp73
a(I12
I1
tp74
a(I10
I4
tp75
a(I13
I4
tp76
a(I5
I2
tp77
a(I6
I1
tp78
a(I11
I4
tp79
a(I9
I2
tp80
a(I3
I2
tp81
a(I2
I1
tp82
a(I7
I2
tp83
a(I14
I0
tp84
atp85
.