((lp0
(lp1
a(lp2
a(lp3
a(lp4
I2
aa(lp5
a(lp6
I4
aa(lp7
I1
aa(lp8
I4
aI5
aa(lp9
I1
aI6
aa(lp10
I4
aI5
aI7
aa(lp11
I9
aI4
aI5
aI7
aa(lp12
I8
aI1
aI6
aa(lp13
I9
aI10
aI4
aI5
aI7
aa(lp14
I0
aa(lp15
I2
aI3
aa(lp16
a(lp17
I6
aI15
aa(lp18
I0
aI1
aI2
aI3
aI4
aI5
aI6
aI7
aI8
aI9
aI10
aI11
aI12
aI13
aI14
aI15
aI16
aa(lp19
(I0
F0.0
I1
F4.0
(lp20
tp21
a(I1
F0.0
I3
F41.0
(lp22
tp23
a(I2
F4.0
I1
F18.0
(lp24
S'file1'
p25
atp26
a(I3
F41.0
I3
F3.0
(lp27
tp28
a(I4
F22.0
I0
F1.0
(lp29
S'file1'
p30
atp31
a(I5
F28.0
I2
F4.0
(lp32
tp33
a(I6
F32.5
I1
F14.5
(lp34
tp35
a(I7
F13.33
I2
F14.67
(lp36
tp37
a(I8
F32.0
I2
F12.0
(lp38
tp39
a(I9
F0.0
I2
F12.33
(lp40
tp41
a(I10
F44.0
I2
F2.67
(lp42
tp43
a(I11
F22.5
I4
F22.5
(lp44
tp45
a(I12
F22.0
I1
F10.5
(lp46
tp47
a(I13
F4.0
I4
F18.5
(lp48
tp49
a(I14
F0.0
I0
F7.0
(lp50
tp51
a(iinstance
Instance
p52
(dp53
S'machineCapability'
p54
(lp55
F1.0
aF2.0
aF3.0
aF1.0
aF2.0
asS'dur'
p56
(lp57
(lp58
F8.0
aF41.0
aF36.0
aF3.0
aF1.0
aF12.0
aF29.0
aF44.0
aF36.0
aF37.0
aF8.0
aF45.0
aF21.0
aF37.0
aF7.0
aa(lp59
F4.0
aF20.5
aF18.0
aF1.5
aF0.5
aF6.0
aF14.5
aF22.0
aF18.0
aF18.5
aF4.0
aF22.5
aF10.5
aF18.5
aF3.5
aa(lp60
F2.6666666666666665
aF13.666666666666666
aF12.0
aF1.0
aF0.3333333333333333
aF4.0
aF9.666666666666666
aF14.666666666666666
aF12.0
aF12.333333333333334
aF2.6666666666666665
aF15.0
aF7.0
aF12.333333333333334
aF2.3333333333333335
aa(lp61
F8.0
aF41.0
aF36.0
aF3.0
aF1.0
aF12.0
aF29.0
aF44.0
aF36.0
aF37.0
aF8.0
aF45.0
aF21.0
aF37.0
aF7.0
aa(lp62
F4.0
aF20.5
aF18.0
aF1.5
aF0.5
aF6.0
aF14.5
aF22.0
aF18.0
aF18.5
aF4.0
aF22.5
aF10.5
aF18.5
aF3.5
aasS'jobs'
p63
(lp64
(F8.0
(lp65
tp66
a(F41.0
(lp67
tp68
a(F36.0
(lp69
g25
atp70
a(F3.0
(lp71
tp72
a(F1.0
(lp73
g30
atp74
a(F12.0
(lp75
tp76
a(F29.0
(lp77
tp78
a(F44.0
(lp79
tp80
a(F36.0
(lp81
tp82
a(F37.0
(lp83
tp84
a(F8.0
(lp85
tp86
a(F45.0
(lp87
tp88
a(F21.0
(lp89
tp90
a(F37.0
(lp91
tp92
a(F7.0
(lp93
tp94
asS'm'
p95
I5
sS'n'
p96
I15
sbF47.0
(lp97
(I1
I3
tp98
a(I0
I1
tp99
a(I10
I4
tp100
a(I13
I4
tp101
a(I9
I2
tp102
a(I3
I2
tp103
a(I2
I1
tp104
a(I7
I2
tp105
a(I12
I1
tp106
a(I5
I2
tp107
a(I8
I2
tp108
a(I6
I1
tp109
a(I10
I2
tp110
a(I3
I3
tp111
a(I11
I4
tp112
a(I14
I0
tp113
a(I4
I0
tp114
atp115
.