((lp0
(lp1
a(lp2
a(lp3
I1
aa(lp4
a(lp5
a(lp6
I4
aa(lp7
a(lp8
I1
aI2
aa(lp9
I0
aa(lp10
I8
aI0
aa(lp11
I3
aa(lp12
I10
aI3
aI2
aa(lp13
I1
aI2
aI7
aa(lp14
I3
aI10
aI11
aa(lp15
I1
aI2
aI12
aI7
aa(lp16
I3
aI2
aI10
aI11
aI13
aa(lp17
I0
aI2
aI3
aI10
aI11
aI13
aI15
aa(lp18
I0
aI1
aI2
aI3
aI4
aI5
aI6
aI7
aI8
aI9
aI10
aI11
aI12
aI13
aI14
aI15
aI16
aa(lp19
(I0
F16.0
I1
F4.0
(lp20
tp21
a(I1
F0.0
I3
F41.0
(lp22
tp23
a(I2
F20.0
I1
F18.0
(lp24
tp25
a(I3
F16.0
I2
F1.0
(lp26
S'file1'
p27
atp28
a(I4
F7.0
I0
F1.0
(lp29
tp30
a(I5
F31.67
I2
F4.0
(lp31
S'file1'
p32
atp33
a(I6
F0.0
I1
F14.5
(lp34
tp35
a(I7
F17.0
I2
F14.67
(lp36
tp37
a(I8
F35.67
I2
F12.0
(lp38
S'file1'
p39
aS'file2'
p40
atp41
a(I9
F2.33
I2
F12.33
(lp42
tp43
a(I10
F22.5
I4
F4.0
(lp44
tp45
a(I11
F0.0
I4
F22.5
(lp46
S'file2'
p47
atp48
a(I12
F38.0
I1
F10.5
(lp49
tp50
a(I13
F26.5
I4
F18.5
(lp51
tp52
a(I14
F0.0
I0
F7.0
(lp53
tp54
a(iinstance
Instance
p55
(dp56
S'machineCapability'
p57
(lp58
F1.0
aF2.0
aF3.0
aF1.0
aF2.0
asS'dur'
p59
(lp60
(lp61
F8.0
aF41.0
aF36.0
aF3.0
aF1.0
aF12.0
aF29.0
aF44.0
aF36.0
aF37.0
aF8.0
aF45.0
aF21.0
aF37.0
aF7.0
aa(lp62
F4.0
aF20.5
aF18.0
aF1.5
aF0.5
aF6.0
aF14.5
aF22.0
aF18.0
aF18.5
aF4.0
aF22.5
aF10.5
aF18.5
aF3.5
aa(lp63
F2.6666666666666665
aF13.666666666666666
aF12.0
aF1.0
aF0.3333333333333333
aF4.0
aF9.666666666666666
aF14.666666666666666
aF12.0
aF12.333333333333334
aF2.6666666666666665
aF15.0
aF7.0
aF12.333333333333334
aF2.3333333333333335
aa(lp64
F8.0
aF41.0
aF36.0
aF3.0
aF1.0
aF12.0
aF29.0
aF44.0
aF36.0
aF37.0
aF8.0
aF45.0
aF21.0
aF37.0
aF7.0
aa(lp65
F4.0
aF20.5
aF18.0
aF1.5
aF0.5
aF6.0
aF14.5
aF22.0
aF18.0
aF18.5
aF4.0
aF22.5
aF10.5
aF18.5
aF3.5
aasS'jobs'
p66
(lp67
(F8.0
(lp68
tp69
a(F41.0
(lp70
tp71
a(F36.0
(lp72
tp73
a(F3.0
(lp74
g27
atp75
a(F1.0
(lp76
tp77
a(F12.0
(lp78
g32
atp79
a(F29.0
(lp80
tp81
a(F44.0
(lp82
tp83
a(F36.0
(lp84
g39
ag40
atp85
a(F37.0
(lp86
tp87
a(F8.0
(lp88
tp89
a(F45.0
(lp90
g47
atp91
a(F21.0
(lp92
tp93
a(F37.0
(lp94
tp95
a(F7.0
(lp96
tp97
asS'm'
p98
I5
sS'n'
p99
I15
sbF48.5
(lp100
(I11
I4
tp101
a(I6
I1
tp102
a(I3
I1
tp103
a(I14
I2
tp104
a(I14
I0
tp105
a(I4
I0
tp106
a(I1
I3
tp107
a(I0
I1
tp108
a(I10
I4
tp109
a(I13
I4
tp110
a(I9
I2
tp111
a(I3
I2
tp112
a(I2
I1
tp113
a(I7
I2
tp114
a(I12
I1
tp115
a(I5
I2
tp116
a(I8
I2
tp117
atp118
.