((lp0
(lp1
a(lp2
I0
aa(lp3
a(lp4
I2
aa(lp5
I0
aI1
aI2
aa(lp6
I0
aI1
aI4
aa(lp7
I2
aI3
aa(lp8
a(lp9
a(lp10
I8
aI2
aI4
aa(lp11
a(lp12
I2
aI3
aI6
aa(lp13
I7
aa(lp14
I12
aI7
aa(lp15
I0
aI1
aI4
aI5
aa(lp16
I0
aI1
aI2
aI3
aI4
aI5
aI6
aI7
aI8
aI9
aI10
aI11
aI12
aI13
aI14
aa(lp17
(I0
F43.0
I1
F4.0
(lp18
tp19
a(I1
F0.0
I3
F41.0
(lp20
tp21
a(I2
F0.0
I1
F18.0
(lp22
S'file1'
p23
atp24
a(I3
F0.0
I2
F1.0
(lp25
tp26
a(I4
F22.0
I0
F1.0
(lp27
S'file1'
p28
atp29
a(I5
F18.0
I2
F4.0
(lp30
S'file1'
p31
aS'file2'
p32
atp33
a(I6
F28.5
I1
F14.5
(lp34
tp35
a(I7
F1.0
I2
F14.67
(lp36
tp37
a(I8
F22.0
I2
F12.0
(lp38
tp39
a(I9
F34.0
I2
F12.33
(lp40
S'file2'
p41
atp42
a(I10
F22.5
I4
F4.0
(lp43
tp44
a(I11
F0.0
I4
F22.5
(lp45
tp46
a(I12
F18.0
I1
F10.5
(lp47
tp48
a(I13
F26.5
I4
F18.5
(lp49
tp50
a(I14
F0.0
I0
F7.0
(lp51
tp52
a(iinstance
Instance
p53
(dp54
S'machineCapability'
p55
(lp56
F1.0
aF2.0
aF3.0
aF1.0
aF2.0
asS'dur'
p57
(lp58
(lp59
F8.0
aF41.0
aF36.0
aF3.0
aF1.0
aF12.0
aF29.0
aF44.0
aF36.0
aF37.0
aF8.0
aF45.0
aF21.0
aF37.0
aF7.0
aa(lp60
F4.0
aF20.5
aF18.0
aF1.5
aF0.5
aF6.0
aF14.5
aF22.0
aF18.0
aF18.5
aF4.0
aF22.5
aF10.5
aF18.5
aF3.5
aa(lp61
F2.6666666666666665
aF13.666666666666666
aF12.0
aF1.0
aF0.3333333333333333
aF4.0
aF9.666666666666666
aF14.666666666666666
aF12.0
aF12.333333333333334
aF2.6666666666666665
aF15.0
aF7.0
aF12.333333333333334
aF2.3333333333333335
aa(lp62
F8.0
aF41.0
aF36.0
aF3.0
aF1.0
aF12.0
aF29.0
aF44.0
aF36.0
aF37.0
aF8.0
aF45.0
aF21.0
aF37.0
aF7.0
aa(lp63
F4.0
aF20.5
aF18.0
aF1.5
aF0.5
aF6.0
aF14.5
aF22.0
aF18.0
aF18.5
aF4.0
aF22.5
aF10.5
aF18.5
aF3.5
aasS'jobs'
p64
(lp65
(F8.0
(lp66
tp67
a(F41.0
(lp68
tp69
a(F36.0
(lp70
g23
atp71
a(F3.0
(lp72
tp73
a(F1.0
(lp74
g28
atp75
a(F12.0
(lp76
g31
ag32
atp77
a(F29.0
(lp78
tp79
a(F44.0
(lp80
tp81
a(F36.0
(lp82
tp83
a(F37.0
(lp84
g41
atp85
a(F8.0
(lp86
tp87
a(F45.0
(lp88
tp89
a(F21.0
(lp90
tp91
a(F37.0
(lp92
tp93
a(F7.0
(lp94
tp95
asS'm'
p96
I5
sS'n'
p97
I15
sbF47.0
(lp98
(I3
I2
tp99
a(I7
I2
tp100
a(I2
I1
tp101
a(I12
I1
tp102
a(I5
I2
tp103
a(I8
I2
tp104
a(I6
I1
tp105
a(I11
I4
tp106
a(I14
I0
tp107
a(I4
I0
tp108
a(I1
I3
tp109
a(I0
I1
tp110
a(I10
I4
tp111
a(I13
I4
tp112
a(I9
I2
tp113
atp114
.