((lp0
I0
aI0
aI0
aI0
aF14.666666666666666
aF22.5
aF1.0
aI0
aF14.5
aF15.666666666666666
aF20.5
aF29.333333333333332
aF40.5
aF31.0
aF41.666666666666664
aF41.666666666666664
aF9.0
aF46.0
a(lp1
(lp2
a(lp3
a(lp4
a(lp5
a(lp6
I1
aa(lp7
I2
aa(lp8
I3
aa(lp9
a(lp10
I7
aa(lp11
I1
aI4
aa(lp12
I8
aI7
aa(lp13
I9
aI4
aI6
aI1
aa(lp14
I2
aI5
aa(lp15
I8
aI10
aI7
aa(lp16
I9
aI11
aI4
aI1
aa(lp17
I0
aI11
aa(lp18
I3
aI6
aa(lp19
I0
aI1
aI2
aI3
aI4
aI5
aI6
aI7
aI8
aI9
aI10
aI11
aI12
aI13
aI14
aI15
aI16
aa(iinstance
Instance
p20
(dp21
S'machineCapability'
p22
(lp23
F1.0
aF2.0
aF3.0
aF1.0
aF2.0
asS'dur'
p24
(lp25
(lp26
F8.0
aF41.0
aF36.0
aF3.0
aF1.0
aF12.0
aF29.0
aF44.0
aF36.0
aF37.0
aF8.0
aF45.0
aF21.0
aF37.0
aa(lp27
F4.0
aF20.5
aF18.0
aF1.5
aF0.5
aF6.0
aF14.5
aF22.0
aF18.0
aF18.5
aF4.0
aF22.5
aF10.5
aF18.5
aa(lp28
F2.6666666666666665
aF13.666666666666666
aF12.0
aF1.0
aF0.3333333333333333
aF4.0
aF9.666666666666666
aF14.666666666666666
aF12.0
aF12.333333333333334
aF2.6666666666666665
aF15.0
aF7.0
aF12.333333333333334
aa(lp29
F8.0
aF41.0
aF36.0
aF3.0
aF1.0
aF12.0
aF29.0
aF44.0
aF36.0
aF37.0
aF8.0
aF45.0
aF21.0
aF37.0
aa(lp30
F4.0
aF20.5
aF18.0
aF1.5
aF0.5
aF6.0
aF14.5
aF22.0
aF18.0
aF18.5
aF4.0
aF22.5
aF10.5
aF18.5
aasS'jobs'
p31
(lp32
(F8.0
(lp33
S'file1'
p34
atp35
a(F41.0
(lp36
tp37
a(F36.0
(lp38
tp39
a(F3.0
(lp40
tp41
a(F1.0
(lp42
S'file1'
p43
atp44
a(F12.0
(lp45
tp46
a(F29.0
(lp47
tp48
a(F44.0
(lp49
tp50
a(F36.0
(lp51
tp52
a(F37.0
(lp53
S'file2'
p54
aS'file1'
p55
atp56
a(F8.0
(lp57
tp58
a(F45.0
(lp59
tp60
a(F21.0
(lp61
tp62
a(F37.0
(lp63
tp64
asS'm'
p65
I5
sS'n'
p66
I14
sb(lp67
(I2
I0
tp68
a(I7
I2
tp69
a(I11
I4
tp70
a(I4
I3
tp71
a(I3
I2
tp72
a(I8
I4
tp73
a(I0
I3
tp74
a(I6
I1
tp75
a(I5
I1
tp76
a(I1
I2
tp77
a(I12
I1
tp78
a(I9
I2
tp79
a(I3
I4
tp80
a(I10
I1
tp81
a(I10
I2
tp82
a(I4
I0
tp83
a(I13
I3
tp84
atp85
.